; ModuleID = 'source-C-CXX/46/3627.c'
source_filename = "source-C-CXX/46/3627.c"
target datalayout = "e-m:e-p270:32:32-p271:32:32-p272:64:64-i64:64-f80:128-n8:16:32:64-S128"
target triple = "x86_64-pc-linux-gnu"

@.str = private unnamed_addr constant [3 x i8] c"%d\00", align 1
@.str.1 = private unnamed_addr constant [4 x i8] c" %d\00", align 1

; Function Attrs: nofree nounwind sspstrong uwtable
define dso_local void @main() local_unnamed_addr #0 {
  %1 = alloca i32, align 4
  %2 = bitcast i32* %1 to i8*
  call void @llvm.lifetime.start.p0i8(i64 4, i8* nonnull %2) #4
  %3 = call i32 (i8*, ...) @__isoc99_scanf(i8* getelementptr inbounds ([3 x i8], [3 x i8]* @.str, i64 0, i64 0), i32* nonnull %1)
  %4 = load i32, i32* %1, align 4, !tbaa !5
  %5 = sext i32 %4 to i64
  %6 = shl nsw i64 %5, 2
  %7 = call noalias align 16 i8* @malloc(i64 %6) #4
  %8 = bitcast i8* %7 to i32*
  %9 = call noalias align 16 i8* @malloc(i64 %6) #4
  %10 = bitcast i8* %9 to i32*
  %11 = icmp sgt i32 %4, 0
  br i1 %11, label %89, label %108

12:                                               ; preds = %89
  %13 = icmp sgt i32 %94, 0
  br i1 %13, label %14, label %108

14:                                               ; preds = %12
  %15 = zext i32 %94 to i64
  %16 = zext i32 %94 to i64
  %17 = icmp ult i32 %94, 8
  br i1 %17, label %86, label %18

18:                                               ; preds = %14
  %19 = and i64 %15, 4294967288
  %20 = and i64 %15, 7
  %21 = add nsw i64 %19, -8
  %22 = lshr exact i64 %21, 3
  %23 = add nuw nsw i64 %22, 1
  %24 = and i64 %23, 1
  %25 = icmp eq i64 %21, 0
  br i1 %25, label %65, label %26

26:                                               ; preds = %18
  %27 = and i64 %23, 4611686018427387902
  br label %28

28:                                               ; preds = %28, %26
  %29 = phi i64 [ 0, %26 ], [ %62, %28 ]
  %30 = phi i64 [ %27, %26 ], [ %63, %28 ]
  %31 = xor i64 %29, -1
  %32 = add i64 %31, %15
  %33 = getelementptr inbounds i32, i32* %8, i64 %32
  %34 = getelementptr inbounds i32, i32* %33, i64 -3
  %35 = bitcast i32* %34 to <4 x i32>*
  %36 = load <4 x i32>, <4 x i32>* %35, align 4, !tbaa !5
  %37 = shufflevector <4 x i32> %36, <4 x i32> poison, <4 x i32> <i32 3, i32 2, i32 1, i32 0>
  %38 = getelementptr inbounds i32, i32* %33, i64 -7
  %39 = bitcast i32* %38 to <4 x i32>*
  %40 = load <4 x i32>, <4 x i32>* %39, align 4, !tbaa !5
  %41 = shufflevector <4 x i32> %40, <4 x i32> poison, <4 x i32> <i32 3, i32 2, i32 1, i32 0>
  %42 = getelementptr inbounds i32, i32* %10, i64 %29
  %43 = bitcast i32* %42 to <4 x i32>*
  store <4 x i32> %37, <4 x i32>* %43, align 16, !tbaa !5
  %44 = getelementptr inbounds i32, i32* %42, i64 4
  %45 = bitcast i32* %44 to <4 x i32>*
  store <4 x i32> %41, <4 x i32>* %45, align 16, !tbaa !5
  %46 = or i64 %29, 8
  %47 = sub nuw nsw i64 -9, %29
  %48 = add i64 %47, %15
  %49 = getelementptr inbounds i32, i32* %8, i64 %48
  %50 = getelementptr inbounds i32, i32* %49, i64 -3
  %51 = bitcast i32* %50 to <4 x i32>*
  %52 = load <4 x i32>, <4 x i32>* %51, align 4, !tbaa !5
  %53 = shufflevector <4 x i32> %52, <4 x i32> poison, <4 x i32> <i32 3, i32 2, i32 1, i32 0>
  %54 = getelementptr inbounds i32, i32* %49, i64 -7
  %55 = bitcast i32* %54 to <4 x i32>*
  %56 = load <4 x i32>, <4 x i32>* %55, align 4, !tbaa !5
  %57 = shufflevector <4 x i32> %56, <4 x i32> poison, <4 x i32> <i32 3, i32 2, i32 1, i32 0>
  %58 = getelementptr inbounds i32, i32* %10, i64 %46
  %59 = bitcast i32* %58 to <4 x i32>*
  store <4 x i32> %53, <4 x i32>* %59, align 16, !tbaa !5
  %60 = getelementptr inbounds i32, i32* %58, i64 4
  %61 = bitcast i32* %60 to <4 x i32>*
  store <4 x i32> %57, <4 x i32>* %61, align 16, !tbaa !5
  %62 = add nuw i64 %29, 16
  %63 = add i64 %30, -2
  %64 = icmp eq i64 %63, 0
  br i1 %64, label %65, label %28, !llvm.loop !9

65:                                               ; preds = %28, %18
  %66 = phi i64 [ 0, %18 ], [ %62, %28 ]
  %67 = icmp eq i64 %24, 0
  br i1 %67, label %84, label %68

68:                                               ; preds = %65
  %69 = xor i64 %66, -1
  %70 = add i64 %69, %15
  %71 = getelementptr inbounds i32, i32* %8, i64 %70
  %72 = getelementptr inbounds i32, i32* %71, i64 -3
  %73 = bitcast i32* %72 to <4 x i32>*
  %74 = load <4 x i32>, <4 x i32>* %73, align 4, !tbaa !5
  %75 = shufflevector <4 x i32> %74, <4 x i32> poison, <4 x i32> <i32 3, i32 2, i32 1, i32 0>
  %76 = getelementptr inbounds i32, i32* %71, i64 -7
  %77 = bitcast i32* %76 to <4 x i32>*
  %78 = load <4 x i32>, <4 x i32>* %77, align 4, !tbaa !5
  %79 = shufflevector <4 x i32> %78, <4 x i32> poison, <4 x i32> <i32 3, i32 2, i32 1, i32 0>
  %80 = getelementptr inbounds i32, i32* %10, i64 %66
  %81 = bitcast i32* %80 to <4 x i32>*
  store <4 x i32> %75, <4 x i32>* %81, align 16, !tbaa !5
  %82 = getelementptr inbounds i32, i32* %80, i64 4
  %83 = bitcast i32* %82 to <4 x i32>*
  store <4 x i32> %79, <4 x i32>* %83, align 16, !tbaa !5
  br label %84

84:                                               ; preds = %65, %68
  %85 = icmp eq i64 %19, %15
  br i1 %85, label %106, label %86

86:                                               ; preds = %14, %84
  %87 = phi i64 [ 0, %14 ], [ %19, %84 ]
  %88 = phi i64 [ %15, %14 ], [ %20, %84 ]
  br label %97

89:                                               ; preds = %0, %89
  %90 = phi i64 [ %93, %89 ], [ 0, %0 ]
  %91 = getelementptr inbounds i32, i32* %8, i64 %90
  %92 = call i32 (i8*, ...) @__isoc99_scanf(i8* getelementptr inbounds ([3 x i8], [3 x i8]* @.str, i64 0, i64 0), i32* %91)
  %93 = add nuw nsw i64 %90, 1
  %94 = load i32, i32* %1, align 4, !tbaa !5
  %95 = sext i32 %94 to i64
  %96 = icmp slt i64 %93, %95
  br i1 %96, label %89, label %12, !llvm.loop !12

97:                                               ; preds = %86, %97
  %98 = phi i64 [ %104, %97 ], [ %87, %86 ]
  %99 = phi i64 [ %100, %97 ], [ %88, %86 ]
  %100 = add nsw i64 %99, -1
  %101 = getelementptr inbounds i32, i32* %8, i64 %100
  %102 = load i32, i32* %101, align 4, !tbaa !5
  %103 = getelementptr inbounds i32, i32* %10, i64 %98
  store i32 %102, i32* %103, align 4, !tbaa !5
  %104 = add nuw nsw i64 %98, 1
  %105 = icmp eq i64 %104, %16
  br i1 %105, label %106, label %97, !llvm.loop !13

106:                                              ; preds = %97, %84
  %107 = load i32, i32* %10, align 16, !tbaa !5
  br label %108

108:                                              ; preds = %0, %106, %12
  %109 = phi i32 [ %107, %106 ], [ undef, %12 ], [ undef, %0 ]
  %110 = call i32 (i8*, ...) @printf(i8* nonnull dereferenceable(1) getelementptr inbounds ([3 x i8], [3 x i8]* @.str, i64 0, i64 0), i32 %109)
  %111 = load i32, i32* %1, align 4, !tbaa !5
  %112 = icmp sgt i32 %111, 1
  br i1 %112, label %113, label %122

113:                                              ; preds = %108, %113
  %114 = phi i64 [ %118, %113 ], [ 1, %108 ]
  %115 = getelementptr inbounds i32, i32* %10, i64 %114
  %116 = load i32, i32* %115, align 4, !tbaa !5
  %117 = call i32 (i8*, ...) @printf(i8* nonnull dereferenceable(1) getelementptr inbounds ([4 x i8], [4 x i8]* @.str.1, i64 0, i64 0), i32 %116)
  %118 = add nuw nsw i64 %114, 1
  %119 = load i32, i32* %1, align 4, !tbaa !5
  %120 = sext i32 %119 to i64
  %121 = icmp slt i64 %118, %120
  br i1 %121, label %113, label %122, !llvm.loop !15

122:                                              ; preds = %113, %108
  call void @llvm.lifetime.end.p0i8(i64 4, i8* nonnull %2) #4
  ret void
}

; Function Attrs: argmemonly mustprogress nofree nosync nounwind willreturn
declare void @llvm.lifetime.start.p0i8(i64 immarg, i8* nocapture) #1

; Function Attrs: nofree nounwind
declare noundef i32 @__isoc99_scanf(i8* nocapture noundef readonly, ...) local_unnamed_addr #2

; Function Attrs: inaccessiblememonly mustprogress nofree nounwind willreturn
declare noalias noundef align 16 i8* @malloc(i64 noundef) local_unnamed_addr #3

; Function Attrs: nofree nounwind
declare noundef i32 @printf(i8* nocapture noundef readonly, ...) local_unnamed_addr #2

; Function Attrs: argmemonly mustprogress nofree nosync nounwind willreturn
declare void @llvm.lifetime.end.p0i8(i64 immarg, i8* nocapture) #1


!llvm.module.flags = !{!0, !1, !2, !3}
!llvm.ident = !{!4}

!0 = !{i32 1, !"wchar_size", i32 4}
!1 = !{i32 7, !"PIC Level", i32 2}
!2 = !{i32 7, !"PIE Level", i32 2}
!3 = !{i32 7, !"uwtable", i32 1}
!4 = !{!"clang version 13.0.0"}
!5 = !{!6, !6, i64 0}
!6 = !{!"int", !7, i64 0}
!7 = !{!"omnipotent char", !8, i64 0}
!8 = !{!"Simple C/C++ TBAA"}
!9 = distinct !{!9, !10, !11}
!10 = !{!"llvm.loop.mustprogress"}
!11 = !{!"llvm.loop.isvectorized", i32 1}
!12 = distinct !{!12, !10}
!13 = distinct !{!13, !10, !14, !11}
!14 = !{!"llvm.loop.unroll.runtime.disable"}
!15 = distinct !{!15, !10}
